target datalayout = "e-m:e-p270:32:32-p271:32:32-p272:64:64-i64:64-i128:128-f80:128-n8:16:32:64-S128"
target triple = "x86_64-pc-linux-gnu"

%struct._packet_info = type { ptr, ptr, i32, i32, %struct.nstime_t, %struct.nstime_t, %struct.nstime_t, i8, ptr, ptr, ptr, ptr, %struct._address, %struct._address, %struct._address, %struct._address, %struct._address, %struct._address, i32, ptr, i8, [3 x i8], %struct.anon, i32, i32, i32, i32, ptr, i8, ptr, ptr, i16, i16, i32, i32, i16, i32, i32, ptr, ptr, ptr, i8, i8, i16, i16, i16, i32, i16, i16, ptr, ptr, ptr, ptr, ptr, i32, i32 }
%struct.nstime_t = type { i64, i32 }
%struct._address = type { i32, i32, ptr, ptr }
%struct.anon = type { i8, [3 x i8] }

@hf_dtpt_wstring_length = internal global i32 0, align 4
@hf_dtpt_wstring_data = internal global i32 0, align 4
@hf_dtpt_padding = internal global i32 0, align 4
@ett_dtpt_wstring = internal global i32 0, align 4

; Function Attrs: null_pointer_is_valid sspstrong uwtable
define internal i32 @dissect_dtpt_wstring(ptr noundef %0, i32 noundef %1, ptr noundef %2, ptr noundef %3, i32 noundef %4) #0 {
  %6 = alloca ptr, align 8
  %7 = alloca i32, align 4
  %8 = alloca ptr, align 8
  %9 = alloca ptr, align 8
  %10 = alloca i32, align 4
  %11 = alloca i32, align 4
  %12 = alloca i32, align 4
  %13 = alloca ptr, align 8
  %14 = alloca i32, align 4
  %15 = alloca ptr, align 8
  %16 = alloca ptr, align 8
  store ptr %0, ptr %6, align 8
  store i32 %1, ptr %7, align 4
  store ptr %2, ptr %8, align 8
  store ptr %3, ptr %9, align 8
  store i32 %4, ptr %10, align 4
  call void @llvm.lifetime.start.p0(i64 4, ptr %11) #7
  call void @llvm.lifetime.start.p0(i64 4, ptr %12) #7
  call void @llvm.lifetime.start.p0(i64 8, ptr %13) #7
  store ptr null, ptr %13, align 8
  call void @llvm.lifetime.start.p0(i64 4, ptr %14) #7
  store i32 0, ptr %14, align 4
  %17 = load ptr, ptr %6, align 8
  %18 = load i32, ptr %7, align 4
  %19 = call i32 @tvb_get_letohl(ptr noundef %17, i32 noundef %18)
  store i32 %19, ptr %11, align 4
  %20 = load ptr, ptr %9, align 8
  %21 = getelementptr inbounds nuw %struct._packet_info, ptr %20, i32 0, i32 51
  %22 = load ptr, ptr %21, align 8
  %23 = load ptr, ptr %6, align 8
  %24 = load i32, ptr %7, align 4
  %25 = add i32 %24, 4
  %26 = load i32, ptr %11, align 4
  %27 = call ptr @tvb_get_string_enc(ptr noundef %22, ptr noundef %23, i32 noundef %25, i32 noundef %26, i32 noundef -2147483644)
  store ptr %27, ptr %13, align 8
  %28 = load i32, ptr %11, align 4
  store i32 %28, ptr %12, align 4
  %29 = load i32, ptr %12, align 4
  %30 = urem i32 %29, 4
  %31 = icmp ne i32 %30, 0
  br i1 %31, label %32, label %39

32:                                               ; preds = %5
  %33 = load i32, ptr %12, align 4
  %34 = urem i32 %33, 4
  %35 = sub i32 4, %34
  store i32 %35, ptr %14, align 4
  %36 = load i32, ptr %14, align 4
  %37 = load i32, ptr %12, align 4
  %38 = add i32 %37, %36
  store i32 %38, ptr %12, align 4
  br label %39

39:                                               ; preds = %32, %5
  %40 = load ptr, ptr %8, align 8
  %41 = icmp ne ptr %40, null
  br i1 %41, label %42, label %91

42:                                               ; preds = %39
  call void @llvm.lifetime.start.p0(i64 8, ptr %15) #7
  call void @llvm.lifetime.start.p0(i64 8, ptr %16) #7
  %43 = load ptr, ptr %8, align 8
  %44 = load i32, ptr %10, align 4
  %45 = load ptr, ptr %6, align 8
  %46 = load i32, ptr %7, align 4
  %47 = add i32 %46, 0
  %48 = load i32, ptr %12, align 4
  %49 = add i32 4, %48
  %50 = load ptr, ptr %13, align 8
  %51 = call ptr @proto_tree_add_string(ptr noundef %43, i32 noundef %44, ptr noundef %45, i32 noundef %47, i32 noundef %49, ptr noundef %50)
  store ptr %51, ptr %15, align 8
  %52 = load ptr, ptr %15, align 8
  %53 = load i32, ptr @ett_dtpt_wstring, align 4
  %54 = call ptr @proto_item_add_subtree(ptr noundef %52, i32 noundef %53)
  store ptr %54, ptr %16, align 8
  %55 = load ptr, ptr %16, align 8
  %56 = icmp ne ptr %55, null
  br i1 %56, label %57, label %90

57:                                               ; preds = %42
  %58 = load ptr, ptr %16, align 8
  %59 = load i32, ptr @hf_dtpt_wstring_length, align 4
  %60 = load ptr, ptr %6, align 8
  %61 = load i32, ptr %7, align 4
  %62 = add i32 %61, 0
  %63 = load i32, ptr %11, align 4
  %64 = call ptr @proto_tree_add_uint(ptr noundef %58, i32 noundef %59, ptr noundef %60, i32 noundef %62, i32 noundef 4, i32 noundef %63)
  %65 = load i32, ptr %11, align 4
  %66 = icmp ne i32 %65, 0
  br i1 %66, label %67, label %76

67:                                               ; preds = %57
  %68 = load ptr, ptr %16, align 8
  %69 = load i32, ptr @hf_dtpt_wstring_data, align 4
  %70 = load ptr, ptr %6, align 8
  %71 = load i32, ptr %7, align 4
  %72 = add i32 %71, 4
  %73 = load i32, ptr %11, align 4
  %74 = load ptr, ptr %13, align 8
  %75 = call ptr @proto_tree_add_string(ptr noundef %68, i32 noundef %69, ptr noundef %70, i32 noundef %72, i32 noundef %73, ptr noundef %74)
  br label %76

76:                                               ; preds = %67, %57
  %77 = load i32, ptr %14, align 4
  %78 = icmp ne i32 %77, 0
  br i1 %78, label %79, label %89

79:                                               ; preds = %76
  %80 = load ptr, ptr %16, align 8
  %81 = load i32, ptr @hf_dtpt_padding, align 4
  %82 = load ptr, ptr %6, align 8
  %83 = load i32, ptr %7, align 4
  %84 = add i32 %83, 4
  %85 = load i32, ptr %11, align 4
  %86 = add i32 %84, %85
  %87 = load i32, ptr %14, align 4
  %88 = call ptr @proto_tree_add_item(ptr noundef %80, i32 noundef %81, ptr noundef %82, i32 noundef %86, i32 noundef %87, i32 noundef 0)
  br label %89

89:                                               ; preds = %79, %76
  br label %90

90:                                               ; preds = %89, %42
  call void @llvm.lifetime.end.p0(i64 8, ptr %16) #7
  call void @llvm.lifetime.end.p0(i64 8, ptr %15) #7
  br label %91

91:                                               ; preds = %90, %39
  %92 = load i32, ptr %12, align 4
  %93 = add i32 4, %92
  %94 = load i32, ptr %7, align 4
  %95 = add i32 %94, %93
  store i32 %95, ptr %7, align 4
  %96 = load i32, ptr %7, align 4
  call void @llvm.lifetime.end.p0(i64 4, ptr %14) #7
  call void @llvm.lifetime.end.p0(i64 8, ptr %13) #7
  call void @llvm.lifetime.end.p0(i64 4, ptr %12) #7
  call void @llvm.lifetime.end.p0(i64 4, ptr %11) #7
  ret i32 %96
}