; Function Attrs: null_pointer_is_valid sspstrong uwtable
define internal fastcc i32 @dissect_dtpt_wstring(ptr noundef %0, i32 noundef %1, ptr noundef %2, ptr noundef readonly captures(none) %3, i32 noundef %4) unnamed_addr #0 {
  %6 = tail call i32 @tvb_get_letohl(ptr noundef %0, i32 noundef %1)
  %7 = getelementptr inbounds nuw i8, ptr %3, i64 408
  %8 = load ptr, ptr %7, align 8
  %9 = add i32 %1, 4
  %10 = tail call ptr @tvb_get_string_enc(ptr noundef %8, ptr noundef %0, i32 noundef %9, i32 noundef %6, i32 noundef -2147483644)
  %11 = and i32 %6, 3
  %.not = icmp eq i32 %11, 0
  %12 = sub nuw nsw i32 4, %11
  %13 = select i1 %.not, i32 0, i32 %12
  %.0 = add i32 %13, %6
  %.not43 = icmp eq ptr %2, null
  br i1 %.not43, label %.thread, label %14

14:                                               ; preds = %5
  %15 = add i32 %.0, 4
  %16 = tail call ptr @proto_tree_add_string(ptr noundef nonnull %2, i32 noundef %4, ptr noundef %0, i32 noundef %1, i32 noundef %15, ptr noundef %10)
  %17 = load i32, ptr @ett_dtpt_wstring, align 4
  %18 = tail call ptr @proto_item_add_subtree(ptr noundef %16, i32 noundef %17)
  %.not44 = icmp eq ptr %18, null
  br i1 %.not44, label %.thread, label %19

19:                                               ; preds = %14
  %20 = load i32, ptr @hf_dtpt_wstring_length, align 4
  %21 = tail call ptr @proto_tree_add_uint(ptr noundef nonnull %18, i32 noundef %20, ptr noundef %0, i32 noundef %1, i32 noundef 4, i32 noundef %6)
  %.not45 = icmp eq i32 %6, 0
  br i1 %.not45, label %.thread, label %22

22:                                               ; preds = %19
  %23 = load i32, ptr @hf_dtpt_wstring_data, align 4
  %24 = tail call ptr @proto_tree_add_string(ptr noundef nonnull %18, i32 noundef %23, ptr noundef %0, i32 noundef %9, i32 noundef %6, ptr noundef %10)
  br i1 %.not, label %.thread, label %25

25:                                               ; preds = %22
  %26 = load i32, ptr @hf_dtpt_padding, align 4
  %27 = add i32 %6, %9
  %28 = tail call ptr @proto_tree_add_item(ptr noundef nonnull %18, i32 noundef %26, ptr noundef %0, i32 noundef %27, i32 noundef %12, i32 noundef 0)
  br label %.thread

.thread:                                          ; preds = %19, %14, %25, %22, %5
  %29 = add i32 %9, %.0
  ret i32 %29
}